target datalayout = "e-m:e-p270:32:32-p271:32:32-p272:64:64-i64:64-i128:128-f80:128-n8:16:32:64-S128"
target triple = "x86_64-pc-linux-gnu"

%struct.bufferevent_ssl = type { %struct.bufferevent_private, ptr, ptr, ptr, ptr, %struct.bio_data_counts, i64, [3 x i32], i8, i64 }
%struct.bufferevent_private = type { %struct.bufferevent, ptr, i8, i16, i16, i16, i32, i32, %struct.event_callback, i32, i32, ptr, i64, i64, ptr, %union.anon.7, ptr }
%struct.bufferevent = type { ptr, ptr, %struct.event, %struct.event, ptr, ptr, %struct.event_watermark, %struct.event_watermark, ptr, ptr, ptr, ptr, %struct.timeval, %struct.timeval, i16 }
%struct.event = type { %struct.event_callback, %union.anon.0, i32, i16, i16, ptr, %union.anon.2, %struct.timeval }
%union.anon.0 = type { %struct.anon.1 }
%struct.anon.1 = type { ptr, ptr }
%union.anon.2 = type { %struct.anon.3 }
%struct.anon.3 = type { %struct.anon.4, %struct.timeval }
%struct.anon.4 = type { ptr, ptr }
%struct.event_watermark = type { i64, i64 }
%struct.timeval = type { i64, i64 }
%struct.event_callback = type { %struct.anon, i16, i8, i8, %union.anon, ptr }
%struct.anon = type { ptr, ptr }
%union.anon = type { ptr }
%union.anon.7 = type { %struct.sockaddr_in6 }
%struct.sockaddr_in6 = type { i16, i16, i32, %struct.in6_addr, i32 }
%struct.in6_addr = type { %union.anon.8 }
%union.anon.8 = type { [4 x i32] }
%struct.bio_data_counts = type { i64, i64 }

; Function Attrs: inlinehint nounwind uwtable
define internal void @decrement_buckets(ptr noundef %0) #4 {
  %2 = alloca ptr, align 8
  %3 = alloca i64, align 8
  %4 = alloca i64, align 8
  %5 = alloca i64, align 8
  %6 = alloca i64, align 8
  store ptr %0, ptr %2, align 8
  call void @llvm.lifetime.start.p0(i64 8, ptr %3) #5
  %7 = load ptr, ptr %2, align 8
  %8 = getelementptr inbounds nuw %struct.bufferevent_ssl, ptr %7, i32 0, i32 2
  %9 = load ptr, ptr %8, align 8
  %10 = call ptr @SSL_get_wbio(ptr noundef %9)
  %11 = call i64 @BIO_number_written(ptr noundef %10)
  store i64 %11, ptr %3, align 8
  call void @llvm.lifetime.start.p0(i64 8, ptr %4) #5
  %12 = load ptr, ptr %2, align 8
  %13 = getelementptr inbounds nuw %struct.bufferevent_ssl, ptr %12, i32 0, i32 2
  %14 = load ptr, ptr %13, align 8
  %15 = call ptr @SSL_get_rbio(ptr noundef %14)
  %16 = call i64 @BIO_number_read(ptr noundef %15)
  store i64 %16, ptr %4, align 8
  call void @llvm.lifetime.start.p0(i64 8, ptr %5) #5
  %17 = load i64, ptr %3, align 8
  %18 = load ptr, ptr %2, align 8
  %19 = getelementptr inbounds nuw %struct.bufferevent_ssl, ptr %18, i32 0, i32 5
  %20 = getelementptr inbounds nuw %struct.bio_data_counts, ptr %19, i32 0, i32 0
  %21 = load i64, ptr %20, align 8
  %22 = sub i64 %17, %21
  store i64 %22, ptr %5, align 8
  call void @llvm.lifetime.start.p0(i64 8, ptr %6) #5
  %23 = load i64, ptr %4, align 8
  %24 = load ptr, ptr %2, align 8
  %25 = getelementptr inbounds nuw %struct.bufferevent_ssl, ptr %24, i32 0, i32 5
  %26 = getelementptr inbounds nuw %struct.bio_data_counts, ptr %25, i32 0, i32 1
  %27 = load i64, ptr %26, align 8
  %28 = sub i64 %23, %27
  store i64 %28, ptr %6, align 8
  %29 = load i64, ptr %5, align 8
  %30 = icmp ne i64 %29, 0
  br i1 %30, label %31, label %36

31:                                               ; preds = %1
  %32 = load ptr, ptr %2, align 8
  %33 = getelementptr inbounds nuw %struct.bufferevent_ssl, ptr %32, i32 0, i32 0
  %34 = load i64, ptr %5, align 8
  %35 = call i32 @bufferevent_decrement_write_buckets_(ptr noundef %33, i64 noundef %34)
  br label %36

36:                                               ; preds = %31, %1
  %37 = load i64, ptr %6, align 8
  %38 = icmp ne i64 %37, 0
  br i1 %38, label %39, label %44

39:                                               ; preds = %36
  %40 = load ptr, ptr %2, align 8
  %41 = getelementptr inbounds nuw %struct.bufferevent_ssl, ptr %40, i32 0, i32 0
  %42 = load i64, ptr %6, align 8
  %43 = call i32 @bufferevent_decrement_read_buckets_(ptr noundef %41, i64 noundef %42)
  br label %44

44:                                               ; preds = %39, %36
  %45 = load i64, ptr %3, align 8
  %46 = load ptr, ptr %2, align 8
  %47 = getelementptr inbounds nuw %struct.bufferevent_ssl, ptr %46, i32 0, i32 5
  %48 = getelementptr inbounds nuw %struct.bio_data_counts, ptr %47, i32 0, i32 0
  store i64 %45, ptr %48, align 8
  %49 = load i64, ptr %4, align 8
  %50 = load ptr, ptr %2, align 8
  %51 = getelementptr inbounds nuw %struct.bufferevent_ssl, ptr %50, i32 0, i32 5
  %52 = getelementptr inbounds nuw %struct.bio_data_counts, ptr %51, i32 0, i32 1
  store i64 %49, ptr %52, align 8
  call void @llvm.lifetime.end.p0(i64 8, ptr %6) #5
  call void @llvm.lifetime.end.p0(i64 8, ptr %5) #5
  call void @llvm.lifetime.end.p0(i64 8, ptr %4) #5
  call void @llvm.lifetime.end.p0(i64 8, ptr %3) #5
  ret void
}