; Function Attrs: inlinehint nounwind uwtable
define internal void @decrement_buckets(ptr noundef %0) #4 {
  %2 = getelementptr inbounds nuw i8, ptr %0, i64 528
  %3 = load ptr, ptr %2, align 8
  %4 = tail call ptr @SSL_get_wbio(ptr noundef %3) #5
  %5 = tail call i64 @BIO_number_written(ptr noundef %4) #5
  %6 = load ptr, ptr %2, align 8
  %7 = tail call ptr @SSL_get_rbio(ptr noundef %6) #5
  %8 = tail call i64 @BIO_number_read(ptr noundef %7) #5
  %9 = getelementptr inbounds nuw i8, ptr %0, i64 552
  %10 = load i64, ptr %9, align 8
  %11 = getelementptr inbounds nuw i8, ptr %0, i64 560
  %12 = load i64, ptr %11, align 8
  %13 = sub i64 %8, %12
  %.not = icmp eq i64 %5, %10
  br i1 %.not, label %17, label %14

14:                                               ; preds = %1
  %15 = sub i64 %5, %10
  %16 = tail call i32 @bufferevent_decrement_write_buckets_(ptr noundef nonnull %0, i64 noundef %15) #5
  br label %17

17:                                               ; preds = %14, %1
  %.not16 = icmp eq i64 %8, %12
  br i1 %.not16, label %20, label %18

18:                                               ; preds = %17
  %19 = tail call i32 @bufferevent_decrement_read_buckets_(ptr noundef nonnull %0, i64 noundef %13) #5
  br label %20

20:                                               ; preds = %18, %17
  store i64 %5, ptr %9, align 8
  store i64 %8, ptr %11, align 8
  ret void
}